#include <math.h>
#include <stdio.h>
#include <stdlib.h>
#include <string.h>
#define LEN 100
#define ASCII 100
#define MAX_N 100
#define MAX_N 100
#define L 100
#define MAX 100
#define ASC 100
#define null 0
#define Len 100
#define M 100
#define SUM 100
#define NUMBER 100
#define SIZE 100
#define N 100
#define Max 100
#define X 100
#define Y 100
#define A 100
#define MAXN 100
#define MAXSIZE 100
int main()
{
	char c[N];
	gets(c);
	int len,len1;
	len=strlen(c);
	int i,j,k=0;
	for(i=0;i<len;i++)
	{
		if(c[i]!=' ')
		{k=k++;}
		else
		{break;}
	}
	len1=k;//printf("%d\n",len1);
    for(i=len1+1;i<=len-len1;i++)
	{
		k=0;
       for(j=0;j<len1;j++)
	   {
		   if(c[i+j]==c[j])
		   {
			   k=k++;
		   }
	   }
	   if(k==len1)
	   {
		   printf("%d\n",i-len1-1);
		   break;
	   }
	}
	
	return 0;
}